target datalayout = "e-m:e-p270:32:32-p271:32:32-p272:64:64-i64:64-i128:128-f80:128-n8:16:32:64-S128"
target triple = "x86_64-pc-linux-gnu"

%struct.ec_method_st = type { ptr, ptr, ptr, ptr, ptr, ptr, ptr, ptr, ptr, ptr, ptr }
%struct.ec_group_st = type { ptr, ptr, %struct.bignum_st, %struct.bignum_st, i32, ptr, %struct.bignum_st, %struct.bignum_st, %struct.bignum_st, i32, ptr, %struct.bignum_st }
%struct.bignum_st = type { ptr, i32, i32, i32, i32 }

@.str = private unnamed_addr constant [118 x i8] c"generated/home/dtcxzyw/WorkSpace/Projects/compilers/llvm-opt-benchmark/bench/libquic/libquic/boringssl/crypto/ec/ec.c\00", align 1

; Function Attrs: nounwind uwtable
define hidden ptr @ec_group_new(ptr noundef %0) #1 {
  %2 = alloca ptr, align 8
  %3 = alloca ptr, align 8
  %4 = alloca ptr, align 8
  %5 = alloca i32, align 4
  store ptr %0, ptr %3, align 8, !tbaa !6
  call void @llvm.lifetime.start.p0(i64 8, ptr %4) #7
  %6 = load ptr, ptr %3, align 8, !tbaa !6
  %7 = icmp eq ptr %6, null
  br i1 %7, label %8, label %9

8:                                                ; preds = %1
  call void @ERR_put_error(i32 noundef 15, i32 noundef 0, i32 noundef 121, ptr noundef @.str, i32 noundef 343)
  store ptr null, ptr %2, align 8
  store i32 1, ptr %5, align 4
  br label %39

9:                                                ; preds = %1
  %10 = load ptr, ptr %3, align 8, !tbaa !6
  %11 = getelementptr inbounds nuw %struct.ec_method_st, ptr %10, i32 0, i32 0
  %12 = load ptr, ptr %11, align 8, !tbaa !11
  %13 = icmp eq ptr %12, null
  br i1 %13, label %14, label %15

14:                                               ; preds = %9
  call void @ERR_put_error(i32 noundef 15, i32 noundef 0, i32 noundef 66, ptr noundef @.str, i32 noundef 348)
  store ptr null, ptr %2, align 8
  store i32 1, ptr %5, align 4
  br label %39

15:                                               ; preds = %9
  %16 = call noalias ptr @malloc(i64 noundef 192) #8
  store ptr %16, ptr %4, align 8, !tbaa !13
  %17 = load ptr, ptr %4, align 8, !tbaa !13
  %18 = icmp eq ptr %17, null
  br i1 %18, label %19, label %20

19:                                               ; preds = %15
  call void @ERR_put_error(i32 noundef 15, i32 noundef 0, i32 noundef 65, ptr noundef @.str, i32 noundef 354)
  store ptr null, ptr %2, align 8
  store i32 1, ptr %5, align 4
  br label %39

20:                                               ; preds = %15
  %21 = load ptr, ptr %4, align 8, !tbaa !13
  call void @llvm.memset.p0.i64(ptr align 8 %21, i8 0, i64 192, i1 false)
  %22 = load ptr, ptr %3, align 8, !tbaa !6
  %23 = load ptr, ptr %4, align 8, !tbaa !13
  %24 = getelementptr inbounds nuw %struct.ec_group_st, ptr %23, i32 0, i32 0
  store ptr %22, ptr %24, align 8, !tbaa !15
  %25 = load ptr, ptr %4, align 8, !tbaa !13
  %26 = getelementptr inbounds nuw %struct.ec_group_st, ptr %25, i32 0, i32 2
  call void @BN_init(ptr noundef %26)
  %27 = load ptr, ptr %4, align 8, !tbaa !13
  %28 = getelementptr inbounds nuw %struct.ec_group_st, ptr %27, i32 0, i32 3
  call void @BN_init(ptr noundef %28)
  %29 = load ptr, ptr %3, align 8, !tbaa !6
  %30 = getelementptr inbounds nuw %struct.ec_method_st, ptr %29, i32 0, i32 0
  %31 = load ptr, ptr %30, align 8, !tbaa !11
  %32 = load ptr, ptr %4, align 8, !tbaa !13
  %33 = call i32 %31(ptr noundef %32)
  %34 = icmp ne i32 %33, 0
  br i1 %34, label %37, label %35

35:                                               ; preds = %20
  %36 = load ptr, ptr %4, align 8, !tbaa !13
  call void @free(ptr noundef %36) #7
  store ptr null, ptr %2, align 8
  store i32 1, ptr %5, align 4
  br label %39

37:                                               ; preds = %20
  %38 = load ptr, ptr %4, align 8, !tbaa !13
  store ptr %38, ptr %2, align 8
  store i32 1, ptr %5, align 4
  br label %39

39:                                               ; preds = %37, %35, %19, %14, %8
  call void @llvm.lifetime.end.p0(i64 8, ptr %4) #7
  %40 = load ptr, ptr %2, align 8
  ret ptr %40
}