; Function Attrs: nounwind uwtable
define hidden noundef ptr @ec_group_new(ptr noundef %0) local_unnamed_addr #1 {
  %2 = icmp eq ptr %0, null
  br i1 %2, label %3, label %4

3:                                                ; preds = %1
  tail call void @ERR_put_error(i32 noundef 15, i32 noundef 0, i32 noundef 121, ptr noundef nonnull @.str, i32 noundef 343) #11
  br label %17

4:                                                ; preds = %1
  %5 = load ptr, ptr %0, align 8, !tbaa !6
  %6 = icmp eq ptr %5, null
  br i1 %6, label %7, label %8

7:                                                ; preds = %4
  tail call void @ERR_put_error(i32 noundef 15, i32 noundef 0, i32 noundef 66, ptr noundef nonnull @.str, i32 noundef 348) #11
  br label %17

8:                                                ; preds = %4
  %calloc = tail call dereferenceable_or_null(192) ptr @calloc(i64 1, i64 192)
  %9 = icmp eq ptr %calloc, null
  br i1 %9, label %10, label %11

10:                                               ; preds = %8
  tail call void @ERR_put_error(i32 noundef 15, i32 noundef 0, i32 noundef 65, ptr noundef nonnull @.str, i32 noundef 354) #11
  br label %17

11:                                               ; preds = %8
  store ptr %0, ptr %calloc, align 8, !tbaa !11
  %12 = getelementptr inbounds nuw i8, ptr %calloc, i64 16
  tail call void @BN_init(ptr noundef nonnull %12) #11
  %13 = getelementptr inbounds nuw i8, ptr %calloc, i64 40
  tail call void @BN_init(ptr noundef nonnull %13) #11
  %14 = load ptr, ptr %0, align 8, !tbaa !6
  %15 = tail call i32 %14(ptr noundef nonnull %calloc) #11
  %.not = icmp eq i32 %15, 0
  br i1 %.not, label %16, label %17

16:                                               ; preds = %11
  tail call void @free(ptr noundef nonnull %calloc) #11
  br label %17

17:                                               ; preds = %11, %16, %10, %7, %3
  %.0 = phi ptr [ null, %3 ], [ null, %7 ], [ null, %10 ], [ null, %16 ], [ %calloc, %11 ]
  ret ptr %.0
}